; Function Attrs: nounwind uwtable
define noalias noundef ptr @Llb_ManComputeCutLo(ptr noundef readonly captures(none) %0) local_unnamed_addr #0 {
  %2 = tail call noalias dereferenceable_or_null(16) ptr @malloc(i64 noundef 16) #20
  %3 = getelementptr inbounds nuw i8, ptr %2, i64 4
  store i32 0, ptr %3, align 4, !tbaa !10
  store i32 100, ptr %2, align 8, !tbaa !3
  %4 = tail call noalias dereferenceable_or_null(800) ptr @malloc(i64 noundef 800) #20
  %5 = getelementptr inbounds nuw i8, ptr %2, i64 8
  store ptr %4, ptr %5, align 8, !tbaa !9
  %6 = getelementptr inbounds nuw i8, ptr %0, i64 16
  %7 = load ptr, ptr %6, align 8, !tbaa !51
  %8 = getelementptr i8, ptr %7, i64 4
  %.val78 = load i32, ptr %8, align 4, !tbaa !10
  %9 = icmp sgt i32 %.val78, 0
  br i1 %9, label %.lr.ph, label %.critedge

.lr.ph:                                           ; preds = %1, %Vec_PtrPush.exit
  %indvars.iv13 = phi i64 [ %indvars.iv.next14, %Vec_PtrPush.exit ], [ 0, %1 ]
  %indvars.iv = phi i64 [ %indvars.iv.next, %Vec_PtrPush.exit ], [ 0, %1 ]
  %10 = phi i32 [ %35, %Vec_PtrPush.exit ], [ 100, %1 ]
  %11 = phi ptr [ %38, %Vec_PtrPush.exit ], [ %7, %1 ]
  %12 = getelementptr i8, ptr %11, i64 8
  %.val = load ptr, ptr %12, align 8, !tbaa !9
  %13 = getelementptr inbounds nuw ptr, ptr %.val, i64 %indvars.iv13
  %14 = load ptr, ptr %13, align 8, !tbaa !11
  %15 = trunc nsw i64 %indvars.iv to i32
  %16 = icmp eq i32 %10, %15
  br i1 %16, label %17, label %.Vec_PtrGrow.exit11_crit_edge.i

.Vec_PtrGrow.exit11_crit_edge.i:                  ; preds = %.lr.ph
  %.pre.i = load ptr, ptr %5, align 8, !tbaa !9
  br label %Vec_PtrPush.exit

17:                                               ; preds = %.lr.ph
  %18 = icmp samesign ult i64 %indvars.iv, 16
  %19 = load ptr, ptr %5, align 8, !tbaa !9
  %.not9.i.i = icmp eq ptr %19, null
  br i1 %18, label %20, label %26

20:                                               ; preds = %17
  br i1 %.not9.i.i, label %23, label %21

21:                                               ; preds = %20
  %22 = tail call dereferenceable_or_null(128) ptr @realloc(ptr noundef nonnull %19, i64 noundef 128) #21
  br label %Vec_PtrGrow.exit.i

23:                                               ; preds = %20
  %24 = tail call noalias dereferenceable_or_null(128) ptr @malloc(i64 noundef 128) #20
  br label %Vec_PtrGrow.exit.i

Vec_PtrGrow.exit.i:                               ; preds = %23, %21
  %25 = phi ptr [ %22, %21 ], [ %24, %23 ]
  store ptr %25, ptr %5, align 8, !tbaa !9
  br label %Vec_PtrPush.exit

26:                                               ; preds = %17
  %27 = shl nuw nsw i64 %indvars.iv, 4
  br i1 %.not9.i.i, label %30, label %28

28:                                               ; preds = %26
  %29 = tail call ptr @realloc(ptr noundef nonnull %19, i64 noundef %27) #21
  br label %32

30:                                               ; preds = %26
  %31 = tail call noalias ptr @malloc(i64 noundef %27) #20
  br label %32

32:                                               ; preds = %30, %28
  %33 = phi ptr [ %29, %28 ], [ %31, %30 ]
  store ptr %33, ptr %5, align 8, !tbaa !9
  %indvars.iv.tr = trunc i64 %indvars.iv to i32
  %34 = shl i32 %indvars.iv.tr, 1
  br label %Vec_PtrPush.exit

Vec_PtrPush.exit:                                 ; preds = %.Vec_PtrGrow.exit11_crit_edge.i, %Vec_PtrGrow.exit.i, %32
  %35 = phi i32 [ %10, %.Vec_PtrGrow.exit11_crit_edge.i ], [ %34, %32 ], [ 16, %Vec_PtrGrow.exit.i ]
  %36 = phi ptr [ %.pre.i, %.Vec_PtrGrow.exit11_crit_edge.i ], [ %33, %32 ], [ %25, %Vec_PtrGrow.exit.i ]
  %indvars.iv.next = add nuw nsw i64 %indvars.iv, 1
  %37 = getelementptr inbounds nuw ptr, ptr %36, i64 %indvars.iv
  store ptr %14, ptr %37, align 8, !tbaa !11
  %indvars.iv.next14 = add nuw nsw i64 %indvars.iv13, 1
  %38 = load ptr, ptr %6, align 8, !tbaa !51
  %39 = getelementptr i8, ptr %38, i64 4
  %.val7 = load i32, ptr %39, align 4, !tbaa !10
  %40 = sext i32 %.val7 to i64
  %41 = icmp slt i64 %indvars.iv.next14, %40
  br i1 %41, label %.lr.ph, label %..critedge_crit_edge, !llvm.loop !89

..critedge_crit_edge:                             ; preds = %Vec_PtrPush.exit
  %42 = trunc nsw i64 %indvars.iv.next to i32
  store i32 %42, ptr %3, align 4, !tbaa !10
  store i32 %35, ptr %2, align 8
  br label %.critedge

.critedge:                                        ; preds = %..critedge_crit_edge, %1
  ret ptr %2
}